target datalayout = "e-m:e-p270:32:32-p271:32:32-p272:64:64-i64:64-i128:128-f80:128-n8:16:32:64-S128"
target triple = "x86_64-pc-linux-gnu"

%struct._Node = type { %union.anon.2 }
%union.anon.2 = type { %struct.BagNode }
%struct.BagNode = type { i32, i32, ptr, ptr, i32, %union.anon.4, i32, i32, i32, i32, i32 }
%union.anon.4 = type { %struct.anon.7 }
%struct.anon.7 = type { ptr, ptr }
%struct.anon.3 = type { i32, i32, ptr, ptr }
%struct.ConsAltNode = type { i32, i32, ptr, ptr, ptr }
%struct.ParseEnv = type { i32, i32, ptr, ptr, i32, i32, i32, ptr, ptr, ptr, ptr, ptr, i32, i32, i32, i32, [8 x %struct.MemEnv], ptr, i32, i32, i32, i32, ptr, ptr, i32, i32 }
%struct.MemEnv = type { ptr, ptr }
%struct.PToken = type { i32, i32, i32, i32, ptr, %union.anon.8 }
%union.anon.8 = type { %struct.anon.10 }
%struct.anon.10 = type { i32, i32, ptr, i32, i32, i32 }

@ParseDepthLimit = internal global i32 4096, align 4

; Function Attrs: nounwind uwtable
define internal ptr @node_new() #0 {
  %1 = alloca ptr, align 8
  %2 = alloca ptr, align 8
  %3 = alloca i32, align 4
  call void @llvm.lifetime.start.p0(i64 8, ptr %2) #8
  %4 = call noalias ptr @malloc(i64 noundef 72) #9
  store ptr %4, ptr %2, align 8, !tbaa !111
  %5 = load ptr, ptr %2, align 8, !tbaa !111
  %6 = icmp eq ptr %5, null
  br i1 %6, label %7, label %8

7:                                                ; preds = %0
  store ptr null, ptr %1, align 8
  store i32 1, ptr %3, align 4
  br label %11

8:                                                ; preds = %0
  %9 = load ptr, ptr %2, align 8, !tbaa !111
  call void @llvm.memset.p0.i64(ptr align 8 %9, i8 0, i64 72, i1 false)
  %10 = load ptr, ptr %2, align 8, !tbaa !111
  store ptr %10, ptr %1, align 8
  store i32 1, ptr %3, align 4
  br label %11

11:                                               ; preds = %8, %7
  call void @llvm.lifetime.end.p0(i64 8, ptr %2) #8
  %12 = load ptr, ptr %1, align 8
  ret ptr %12
}

; Function Attrs: nounwind uwtable
define dso_local ptr @onig_node_new_alt(ptr noundef %0, ptr noundef %1) #0 {
  %3 = alloca ptr, align 8
  %4 = alloca ptr, align 8
  %5 = alloca ptr, align 8
  %6 = alloca ptr, align 8
  %7 = alloca i32, align 4
  store ptr %0, ptr %4, align 8, !tbaa !111
  store ptr %1, ptr %5, align 8, !tbaa !111
  call void @llvm.lifetime.start.p0(i64 8, ptr %6) #8
  %8 = call ptr @node_new()
  store ptr %8, ptr %6, align 8, !tbaa !111
  %9 = load ptr, ptr %6, align 8, !tbaa !111
  %10 = icmp eq ptr %9, null
  br i1 %10, label %11, label %12

11:                                               ; preds = %2
  store ptr null, ptr %3, align 8
  store i32 1, ptr %7, align 4
  br label %25

12:                                               ; preds = %2
  %13 = load ptr, ptr %6, align 8, !tbaa !111
  %14 = getelementptr inbounds nuw %struct._Node, ptr %13, i32 0, i32 0
  %15 = getelementptr inbounds nuw %struct.anon.3, ptr %14, i32 0, i32 0
  store i32 8, ptr %15, align 8, !tbaa !12
  %16 = load ptr, ptr %4, align 8, !tbaa !111
  %17 = load ptr, ptr %6, align 8, !tbaa !111
  %18 = getelementptr inbounds nuw %struct._Node, ptr %17, i32 0, i32 0
  %19 = getelementptr inbounds nuw %struct.ConsAltNode, ptr %18, i32 0, i32 3
  store ptr %16, ptr %19, align 8, !tbaa !12
  %20 = load ptr, ptr %5, align 8, !tbaa !111
  %21 = load ptr, ptr %6, align 8, !tbaa !111
  %22 = getelementptr inbounds nuw %struct._Node, ptr %21, i32 0, i32 0
  %23 = getelementptr inbounds nuw %struct.ConsAltNode, ptr %22, i32 0, i32 4
  store ptr %20, ptr %23, align 8, !tbaa !12
  %24 = load ptr, ptr %6, align 8, !tbaa !111
  store ptr %24, ptr %3, align 8
  store i32 1, ptr %7, align 4
  br label %25

25:                                               ; preds = %12, %11
  call void @llvm.lifetime.end.p0(i64 8, ptr %6) #8
  %26 = load ptr, ptr %3, align 8
  ret ptr %26
}

; Function Attrs: nounwind uwtable
define internal i32 @prs_alts(ptr noundef %0, ptr noundef %1, i32 noundef %2, ptr noundef %3, ptr noundef %4, ptr noundef %5, i32 noundef %6) #0 {
  %8 = alloca i32, align 4
  %9 = alloca ptr, align 8
  %10 = alloca ptr, align 8
  %11 = alloca i32, align 4
  %12 = alloca ptr, align 8
  %13 = alloca ptr, align 8
  %14 = alloca ptr, align 8
  %15 = alloca i32, align 4
  %16 = alloca i32, align 4
  %17 = alloca ptr, align 8
  %18 = alloca ptr, align 8
  %19 = alloca i32, align 4
  %20 = alloca i32, align 4
  store ptr %0, ptr %9, align 8, !tbaa !119
  store ptr %1, ptr %10, align 8, !tbaa !9
  store i32 %2, ptr %11, align 4, !tbaa !10
  store ptr %3, ptr %12, align 8, !tbaa !181
  store ptr %4, ptr %13, align 8, !tbaa !4
  store ptr %5, ptr %14, align 8, !tbaa !9
  store i32 %6, ptr %15, align 4, !tbaa !10
  call void @llvm.lifetime.start.p0(i64 4, ptr %16) #8
  call void @llvm.lifetime.start.p0(i64 8, ptr %17) #8
  call void @llvm.lifetime.start.p0(i64 8, ptr %18) #8
  call void @llvm.lifetime.start.p0(i64 4, ptr %19) #8
  %21 = load ptr, ptr %9, align 8, !tbaa !119
  store ptr null, ptr %21, align 8, !tbaa !111
  br label %22

22:                                               ; preds = %7
  %23 = load ptr, ptr %14, align 8, !tbaa !9
  %24 = getelementptr inbounds nuw %struct.ParseEnv, ptr %23, i32 0, i32 24
  %25 = load i32, ptr %24, align 8, !tbaa !175
  %26 = add i32 %25, 1
  store i32 %26, ptr %24, align 8, !tbaa !175
  %27 = load ptr, ptr %14, align 8, !tbaa !9
  %28 = getelementptr inbounds nuw %struct.ParseEnv, ptr %27, i32 0, i32 24
  %29 = load i32, ptr %28, align 8, !tbaa !175
  %30 = load i32, ptr @ParseDepthLimit, align 4, !tbaa !10
  %31 = icmp ugt i32 %29, %30
  br i1 %31, label %32, label %33

32:                                               ; preds = %22
  store i32 -16, ptr %8, align 4
  store i32 1, ptr %20, align 4
  br label %142

33:                                               ; preds = %22
  br label %34

34:                                               ; preds = %33
  br label %35

35:                                               ; preds = %34
  %36 = load ptr, ptr %14, align 8, !tbaa !9
  %37 = getelementptr inbounds nuw %struct.ParseEnv, ptr %36, i32 0, i32 0
  %38 = load i32, ptr %37, align 8, !tbaa !153
  store i32 %38, ptr %19, align 4, !tbaa !10
  %39 = load ptr, ptr %10, align 8, !tbaa !9
  %40 = load i32, ptr %11, align 4, !tbaa !10
  %41 = load ptr, ptr %12, align 8, !tbaa !181
  %42 = load ptr, ptr %13, align 8, !tbaa !4
  %43 = load ptr, ptr %14, align 8, !tbaa !9
  %44 = load i32, ptr %15, align 4, !tbaa !10
  %45 = call i32 @prs_branch(ptr noundef %17, ptr noundef %39, i32 noundef %40, ptr noundef %41, ptr noundef %42, ptr noundef %43, i32 noundef %44)
  store i32 %45, ptr %16, align 4, !tbaa !10
  %46 = load i32, ptr %16, align 4, !tbaa !10
  %47 = icmp slt i32 %46, 0
  br i1 %47, label %48, label %51

48:                                               ; preds = %35
  %49 = load ptr, ptr %17, align 8, !tbaa !111
  call void @onig_node_free(ptr noundef %49)
  %50 = load i32, ptr %16, align 4, !tbaa !10
  store i32 %50, ptr %8, align 4
  store i32 1, ptr %20, align 4
  br label %142

51:                                               ; preds = %35
  %52 = load i32, ptr %16, align 4, !tbaa !10
  %53 = load i32, ptr %11, align 4, !tbaa !10
  %54 = icmp eq i32 %52, %53
  br i1 %54, label %55, label %58

55:                                               ; preds = %51
  %56 = load ptr, ptr %17, align 8, !tbaa !111
  %57 = load ptr, ptr %9, align 8, !tbaa !119
  store ptr %56, ptr %57, align 8, !tbaa !111
  br label %133

58:                                               ; preds = %51
  %59 = load i32, ptr %16, align 4, !tbaa !10
  %60 = icmp eq i32 %59, 13
  br i1 %60, label %61, label %125

61:                                               ; preds = %58
  %62 = load ptr, ptr %17, align 8, !tbaa !111
  %63 = call ptr @onig_node_new_alt(ptr noundef %62, ptr noundef null)
  %64 = load ptr, ptr %9, align 8, !tbaa !119
  store ptr %63, ptr %64, align 8, !tbaa !111
  %65 = load ptr, ptr %9, align 8, !tbaa !119
  %66 = load ptr, ptr %65, align 8, !tbaa !111
  %67 = icmp eq ptr %66, null
  br i1 %67, label %68, label %70

68:                                               ; preds = %61
  %69 = load ptr, ptr %17, align 8, !tbaa !111
  call void @onig_node_free(ptr noundef %69)
  store i32 -5, ptr %8, align 4
  store i32 1, ptr %20, align 4
  br label %142

70:                                               ; preds = %61
  %71 = load ptr, ptr %9, align 8, !tbaa !119
  %72 = load ptr, ptr %71, align 8, !tbaa !111
  %73 = getelementptr inbounds nuw %struct._Node, ptr %72, i32 0, i32 0
  %74 = getelementptr inbounds nuw %struct.ConsAltNode, ptr %73, i32 0, i32 4
  store ptr %74, ptr %18, align 8, !tbaa !119
  br label %75

75:                                               ; preds = %112, %70
  %76 = load i32, ptr %16, align 4, !tbaa !10
  %77 = icmp eq i32 %76, 13
  br i1 %77, label %78, label %117

78:                                               ; preds = %75
  %79 = load ptr, ptr %10, align 8, !tbaa !9
  %80 = load ptr, ptr %12, align 8, !tbaa !181
  %81 = load ptr, ptr %13, align 8, !tbaa !4
  %82 = load ptr, ptr %14, align 8, !tbaa !9
  %83 = call i32 @fetch_token(ptr noundef %79, ptr noundef %80, ptr noundef %81, ptr noundef %82)
  store i32 %83, ptr %16, align 4, !tbaa !10
  %84 = load i32, ptr %16, align 4, !tbaa !10
  %85 = icmp slt i32 %84, 0
  br i1 %85, label %86, label %88

86:                                               ; preds = %78
  %87 = load i32, ptr %16, align 4, !tbaa !10
  store i32 %87, ptr %8, align 4
  store i32 1, ptr %20, align 4
  br label %142

88:                                               ; preds = %78
  %89 = load ptr, ptr %10, align 8, !tbaa !9
  %90 = load i32, ptr %11, align 4, !tbaa !10
  %91 = load ptr, ptr %12, align 8, !tbaa !181
  %92 = load ptr, ptr %13, align 8, !tbaa !4
  %93 = load ptr, ptr %14, align 8, !tbaa !9
  %94 = call i32 @prs_branch(ptr noundef %17, ptr noundef %89, i32 noundef %90, ptr noundef %91, ptr noundef %92, ptr noundef %93, i32 noundef 0)
  store i32 %94, ptr %16, align 4, !tbaa !10
  %95 = load i32, ptr %16, align 4, !tbaa !10
  %96 = icmp slt i32 %95, 0
  br i1 %96, label %97, label %100

97:                                               ; preds = %88
  %98 = load ptr, ptr %17, align 8, !tbaa !111
  call void @onig_node_free(ptr noundef %98)
  %99 = load i32, ptr %16, align 4, !tbaa !10
  store i32 %99, ptr %8, align 4
  store i32 1, ptr %20, align 4
  br label %142

100:                                              ; preds = %88
  %101 = load ptr, ptr %17, align 8, !tbaa !111
  %102 = call ptr @onig_node_new_alt(ptr noundef %101, ptr noundef null)
  %103 = load ptr, ptr %18, align 8, !tbaa !119
  store ptr %102, ptr %103, align 8, !tbaa !111
  %104 = load ptr, ptr %18, align 8, !tbaa !119
  %105 = load ptr, ptr %104, align 8, !tbaa !111
  %106 = icmp eq ptr %105, null
  br i1 %106, label %107, label %112

107:                                              ; preds = %100
  %108 = load ptr, ptr %17, align 8, !tbaa !111
  call void @onig_node_free(ptr noundef %108)
  %109 = load ptr, ptr %9, align 8, !tbaa !119
  %110 = load ptr, ptr %109, align 8, !tbaa !111
  call void @onig_node_free(ptr noundef %110)
  %111 = load ptr, ptr %9, align 8, !tbaa !119
  store ptr null, ptr %111, align 8, !tbaa !111
  store i32 -5, ptr %8, align 4
  store i32 1, ptr %20, align 4
  br label %142

112:                                              ; preds = %100
  %113 = load ptr, ptr %18, align 8, !tbaa !119
  %114 = load ptr, ptr %113, align 8, !tbaa !111
  %115 = getelementptr inbounds nuw %struct._Node, ptr %114, i32 0, i32 0
  %116 = getelementptr inbounds nuw %struct.ConsAltNode, ptr %115, i32 0, i32 4
  store ptr %116, ptr %18, align 8, !tbaa !119
  br label %75, !llvm.loop !208

117:                                              ; preds = %75
  %118 = load ptr, ptr %10, align 8, !tbaa !9
  %119 = getelementptr inbounds nuw %struct.PToken, ptr %118, i32 0, i32 0
  %120 = load i32, ptr %119, align 8, !tbaa !192
  %121 = load i32, ptr %11, align 4, !tbaa !10
  %122 = icmp ne i32 %120, %121
  br i1 %122, label %123, label %124

123:                                              ; preds = %117
  br label %127

124:                                              ; preds = %117
  br label %132

125:                                              ; preds = %58
  %126 = load ptr, ptr %17, align 8, !tbaa !111
  call void @onig_node_free(ptr noundef %126)
  br label %127

127:                                              ; preds = %125, %123
  %128 = load i32, ptr %11, align 4, !tbaa !10
  %129 = icmp eq i32 %128, 15
  br i1 %129, label %130, label %131

130:                                              ; preds = %127
  store i32 -117, ptr %8, align 4
  store i32 1, ptr %20, align 4
  br label %142

131:                                              ; preds = %127
  store i32 -11, ptr %8, align 4
  store i32 1, ptr %20, align 4
  br label %142

132:                                              ; preds = %124
  br label %133

133:                                              ; preds = %132, %55
  %134 = load i32, ptr %19, align 4, !tbaa !10
  %135 = load ptr, ptr %14, align 8, !tbaa !9
  %136 = getelementptr inbounds nuw %struct.ParseEnv, ptr %135, i32 0, i32 0
  store i32 %134, ptr %136, align 8, !tbaa !153
  %137 = load ptr, ptr %14, align 8, !tbaa !9
  %138 = getelementptr inbounds nuw %struct.ParseEnv, ptr %137, i32 0, i32 24
  %139 = load i32, ptr %138, align 8, !tbaa !175
  %140 = add i32 %139, -1
  store i32 %140, ptr %138, align 8, !tbaa !175
  %141 = load i32, ptr %16, align 4, !tbaa !10
  store i32 %141, ptr %8, align 4
  store i32 1, ptr %20, align 4
  br label %142

142:                                              ; preds = %133, %131, %130, %107, %97, %86, %68, %48, %32
  call void @llvm.lifetime.end.p0(i64 4, ptr %19) #8
  call void @llvm.lifetime.end.p0(i64 8, ptr %18) #8
  call void @llvm.lifetime.end.p0(i64 8, ptr %17) #8
  call void @llvm.lifetime.end.p0(i64 4, ptr %16) #8
  %143 = load i32, ptr %8, align 4
  ret i32 %143
}