; Function Attrs: nounwind uwtable
define internal fastcc i32 @prs_alts(ptr noundef captures(none) initializes((0, 8)) %0, ptr noundef nonnull %1, i32 noundef range(i32 0, 16) %2, ptr noundef nonnull captures(none) %3, ptr noundef %4, ptr noundef %5, i32 noundef range(i32 0, 2) %6) unnamed_addr #2 {
  %8 = alloca ptr, align 8
  call void @llvm.lifetime.start.p0(i64 8, ptr nonnull %8) #25
  store ptr null, ptr %0, align 8, !tbaa !112
  %9 = getelementptr inbounds nuw i8, ptr %5, i64 264
  %10 = load i32, ptr %9, align 8, !tbaa !178
  %11 = add i32 %10, 1
  store i32 %11, ptr %9, align 8, !tbaa !178
  %12 = load i32, ptr @ParseDepthLimit, align 4, !tbaa !8
  %13 = icmp ugt i32 %11, %12
  br i1 %13, label %onig_node_free.exit, label %14

14:                                               ; preds = %7
  %15 = load i32, ptr %5, align 8, !tbaa !140
  %16 = call fastcc i32 @prs_branch(ptr noundef %8, ptr noundef %1, i32 noundef %2, ptr noundef %3, ptr noundef %4, ptr noundef nonnull %5, i32 noundef %6)
  %17 = icmp slt i32 %16, 0
  br i1 %17, label %18, label %22

18:                                               ; preds = %14
  %19 = load ptr, ptr %8, align 8, !tbaa !112
  %20 = icmp eq ptr %19, null
  br i1 %20, label %onig_node_free.exit, label %21

21:                                               ; preds = %18
  tail call fastcc void @node_free_body(ptr noundef nonnull %19)
  tail call void @free(ptr noundef nonnull %19) #25
  br label %onig_node_free.exit

22:                                               ; preds = %14
  %23 = icmp eq i32 %16, %2
  br i1 %23, label %24, label %26

24:                                               ; preds = %22
  %25 = load ptr, ptr %8, align 8, !tbaa !112
  store ptr %25, ptr %0, align 8, !tbaa !112
  br label %56

26:                                               ; preds = %22
  %27 = icmp eq i32 %16, 13
  %28 = load ptr, ptr %8, align 8, !tbaa !112
  br i1 %27, label %29, label %52

29:                                               ; preds = %26
  %calloc.i.i = tail call noalias noundef dereferenceable_or_null(72) ptr @calloc(i64 1, i64 72)
  %30 = icmp eq ptr %calloc.i.i, null
  br i1 %30, label %32, label %onig_node_new_alt.exit

onig_node_new_alt.exit:                           ; preds = %29
  store i32 8, ptr %calloc.i.i, align 8, !tbaa !10
  %31 = getelementptr inbounds nuw i8, ptr %calloc.i.i, i64 16
  store ptr %28, ptr %31, align 8, !tbaa !10
  store ptr %calloc.i.i, ptr %0, align 8, !tbaa !112
  br label %35

32:                                               ; preds = %29
  store ptr null, ptr %0, align 8, !tbaa !112
  %33 = icmp eq ptr %28, null
  br i1 %33, label %onig_node_free.exit, label %34

34:                                               ; preds = %32
  tail call fastcc void @node_free_body(ptr noundef nonnull %28)
  tail call void @free(ptr noundef nonnull %28) #25
  br label %onig_node_free.exit

35:                                               ; preds = %onig_node_new_alt.exit, %onig_node_new_alt.exit57
  %calloc.i.i.pn = phi ptr [ %calloc.i.i, %onig_node_new_alt.exit ], [ %calloc.i.i56, %onig_node_new_alt.exit57 ]
  %.04571 = getelementptr inbounds nuw i8, ptr %calloc.i.i.pn, i64 24
  %36 = tail call fastcc i32 @fetch_token(ptr noundef %1, ptr noundef %3, ptr noundef %4, ptr noundef nonnull %5)
  %37 = icmp slt i32 %36, 0
  br i1 %37, label %onig_node_free.exit, label %38

38:                                               ; preds = %35
  %39 = call fastcc i32 @prs_branch(ptr noundef %8, ptr noundef %1, i32 noundef %2, ptr noundef %3, ptr noundef %4, ptr noundef nonnull %5, i32 noundef 0)
  %40 = icmp slt i32 %39, 0
  %41 = load ptr, ptr %8, align 8, !tbaa !112
  br i1 %40, label %42, label %43

42:                                               ; preds = %38
  tail call void @onig_node_free(ptr noundef %41)
  br label %onig_node_free.exit

43:                                               ; preds = %38
  %calloc.i.i56 = tail call noalias noundef dereferenceable_or_null(72) ptr @calloc(i64 1, i64 72)
  %44 = icmp eq ptr %calloc.i.i56, null
  br i1 %44, label %48, label %onig_node_new_alt.exit57

onig_node_new_alt.exit57:                         ; preds = %43
  store i32 8, ptr %calloc.i.i56, align 8, !tbaa !10
  %45 = getelementptr inbounds nuw i8, ptr %calloc.i.i56, i64 16
  store ptr %41, ptr %45, align 8, !tbaa !10
  %46 = getelementptr inbounds nuw i8, ptr %calloc.i.i56, i64 24
  store ptr null, ptr %46, align 8, !tbaa !10
  store ptr %calloc.i.i56, ptr %.04571, align 8, !tbaa !112
  %47 = icmp eq i32 %39, 13
  br i1 %47, label %35, label %50, !llvm.loop !179

48:                                               ; preds = %43
  store ptr null, ptr %.04571, align 8, !tbaa !112
  tail call void @onig_node_free(ptr noundef %41)
  %49 = load ptr, ptr %0, align 8, !tbaa !112
  tail call void @onig_node_free(ptr noundef %49)
  store ptr null, ptr %0, align 8, !tbaa !112
  br label %onig_node_free.exit

50:                                               ; preds = %onig_node_new_alt.exit57
  %51 = load i32, ptr %1, align 8, !tbaa !164
  %.not = icmp eq i32 %51, %2
  br i1 %.not, label %56, label %onig_node_free.exit58

52:                                               ; preds = %26
  %53 = icmp eq ptr %28, null
  br i1 %53, label %onig_node_free.exit58, label %54

54:                                               ; preds = %52
  tail call fastcc void @node_free_body(ptr noundef nonnull %28)
  tail call void @free(ptr noundef nonnull %28) #25
  br label %onig_node_free.exit58

onig_node_free.exit58:                            ; preds = %54, %52, %50
  %55 = icmp eq i32 %2, 15
  %. = select i1 %55, i32 -117, i32 -11
  br label %onig_node_free.exit

56:                                               ; preds = %50, %24
  %.046 = phi i32 [ %2, %24 ], [ %39, %50 ]
  store i32 %15, ptr %5, align 8, !tbaa !140
  %57 = load i32, ptr %9, align 8, !tbaa !178
  %58 = add i32 %57, -1
  store i32 %58, ptr %9, align 8, !tbaa !178
  br label %onig_node_free.exit

onig_node_free.exit:                              ; preds = %35, %34, %32, %21, %18, %onig_node_free.exit58, %7, %56, %48, %42
  %.0 = phi i32 [ %.046, %56 ], [ %39, %42 ], [ -5, %48 ], [ -16, %7 ], [ %., %onig_node_free.exit58 ], [ %16, %18 ], [ %16, %21 ], [ -5, %32 ], [ -5, %34 ], [ %36, %35 ]
  call void @llvm.lifetime.end.p0(i64 8, ptr nonnull %8) #25
  ret i32 %.0
}